target datalayout = "e-m:e-p270:32:32-p271:32:32-p272:64:64-i64:64-i128:128-f80:128-n8:16:32:64-S128"
target triple = "x86_64-pc-linux-gnu"

%struct.DdManager = type { %struct.DdNode, ptr, ptr, ptr, ptr, ptr, ptr, ptr, i32, i32, double, double, double, i32, i32, i32, i32, i32, i32, ptr, ptr, %struct.DdSubtable, i32, i32, i32, i32, i32, i32, i32, double, i32, i32, i32, ptr, i64, double, i32, ptr, ptr, ptr, ptr, ptr, ptr, ptr, i32, ptr, ptr, ptr, ptr, ptr, ptr, i32, i32, i32, double, i32, i32, i32, i32, double, double, i32, i32, i32, i32, i32, i32, i32, i32, i32, ptr, ptr, i32, i32, i32, i32, i32, i32, ptr, ptr, ptr, ptr, ptr, ptr, ptr, ptr, i32, i64, i64, i64, i32, i64, i64, double, double, double, double, double, double, i32, ptr, ptr, i64 }
%struct.DdNode = type { i32, i32, ptr, %union.anon, i64 }
%union.anon = type { %struct.DdChildren }
%struct.DdChildren = type { ptr, ptr }
%struct.DdSubtable = type { ptr, i32, i32, i32, i32, i32, i32, i32, i32, i32, i32, i32 }

; Function Attrs: nounwind uwtable
define ptr @extraZddTuplesFromBdd(ptr noundef %0, ptr noundef %1, ptr noundef %2) #0 {
  %4 = alloca ptr, align 8
  %5 = alloca ptr, align 8
  %6 = alloca ptr, align 8
  %7 = alloca ptr, align 8
  %8 = alloca ptr, align 8
  %9 = alloca ptr, align 8
  %10 = alloca ptr, align 8
  %11 = alloca i32, align 4
  store ptr %0, ptr %5, align 8, !tbaa !3
  store ptr %1, ptr %6, align 8, !tbaa !8
  store ptr %2, ptr %7, align 8, !tbaa !8
  call void @llvm.lifetime.start.p0(i64 8, ptr %8) #6
  call void @llvm.lifetime.start.p0(i64 8, ptr %9) #6
  call void @llvm.lifetime.start.p0(i64 8, ptr %10) #6
  %12 = load ptr, ptr %6, align 8, !tbaa !8
  %13 = getelementptr inbounds nuw %struct.DdNode, ptr %12, i32 0, i32 0
  %14 = load i32, ptr %13, align 8, !tbaa !39
  %15 = icmp eq i32 %14, 2147483647
  br i1 %15, label %16, label %20

16:                                               ; preds = %3
  %17 = load ptr, ptr %6, align 8, !tbaa !8
  %18 = getelementptr inbounds nuw %struct.DdNode, ptr %17, i32 0, i32 0
  %19 = load i32, ptr %18, align 8, !tbaa !39
  br label %30

20:                                               ; preds = %3
  %21 = load ptr, ptr %5, align 8, !tbaa !3
  %22 = getelementptr inbounds nuw %struct.DdManager, ptr %21, i32 0, i32 37
  %23 = load ptr, ptr %22, align 8, !tbaa !49
  %24 = load ptr, ptr %6, align 8, !tbaa !8
  %25 = getelementptr inbounds nuw %struct.DdNode, ptr %24, i32 0, i32 0
  %26 = load i32, ptr %25, align 8, !tbaa !39
  %27 = zext i32 %26 to i64
  %28 = getelementptr inbounds nuw i32, ptr %23, i64 %27
  %29 = load i32, ptr %28, align 4, !tbaa !31
  br label %30

30:                                               ; preds = %20, %16
  %31 = phi i32 [ %19, %16 ], [ %29, %20 ]
  %32 = load ptr, ptr %7, align 8, !tbaa !8
  %33 = getelementptr inbounds nuw %struct.DdNode, ptr %32, i32 0, i32 0
  %34 = load i32, ptr %33, align 8, !tbaa !39
  %35 = icmp eq i32 %34, 2147483647
  br i1 %35, label %36, label %40

36:                                               ; preds = %30
  %37 = load ptr, ptr %7, align 8, !tbaa !8
  %38 = getelementptr inbounds nuw %struct.DdNode, ptr %37, i32 0, i32 0
  %39 = load i32, ptr %38, align 8, !tbaa !39
  br label %50

40:                                               ; preds = %30
  %41 = load ptr, ptr %5, align 8, !tbaa !3
  %42 = getelementptr inbounds nuw %struct.DdManager, ptr %41, i32 0, i32 37
  %43 = load ptr, ptr %42, align 8, !tbaa !49
  %44 = load ptr, ptr %7, align 8, !tbaa !8
  %45 = getelementptr inbounds nuw %struct.DdNode, ptr %44, i32 0, i32 0
  %46 = load i32, ptr %45, align 8, !tbaa !39
  %47 = zext i32 %46 to i64
  %48 = getelementptr inbounds nuw i32, ptr %43, i64 %47
  %49 = load i32, ptr %48, align 4, !tbaa !31
  br label %50

50:                                               ; preds = %40, %36
  %51 = phi i32 [ %39, %36 ], [ %49, %40 ]
  %52 = icmp slt i32 %31, %51
  br i1 %52, label %53, label %57

53:                                               ; preds = %50
  %54 = load ptr, ptr %5, align 8, !tbaa !3
  %55 = getelementptr inbounds nuw %struct.DdManager, ptr %54, i32 0, i32 2
  %56 = load ptr, ptr %55, align 8, !tbaa !43
  store ptr %56, ptr %4, align 8
  store i32 1, ptr %11, align 4
  br label %171

57:                                               ; preds = %50
  %58 = load ptr, ptr %7, align 8, !tbaa !8
  %59 = load ptr, ptr %5, align 8, !tbaa !3
  %60 = getelementptr inbounds nuw %struct.DdManager, ptr %59, i32 0, i32 1
  %61 = load ptr, ptr %60, align 8, !tbaa !38
  %62 = icmp eq ptr %58, %61
  br i1 %62, label %63, label %67

63:                                               ; preds = %57
  %64 = load ptr, ptr %5, align 8, !tbaa !3
  %65 = getelementptr inbounds nuw %struct.DdManager, ptr %64, i32 0, i32 1
  %66 = load ptr, ptr %65, align 8, !tbaa !38
  store ptr %66, ptr %4, align 8
  store i32 1, ptr %11, align 4
  br label %171

67:                                               ; preds = %57
  %68 = load ptr, ptr %5, align 8, !tbaa !3
  %69 = load ptr, ptr %6, align 8, !tbaa !8
  %70 = load ptr, ptr %7, align 8, !tbaa !8
  %71 = call ptr @cuddCacheLookup2Zdd(ptr noundef %68, ptr noundef @extraZddTuplesFromBdd, ptr noundef %69, ptr noundef %70)
  store ptr %71, ptr %8, align 8, !tbaa !8
  %72 = load ptr, ptr %8, align 8, !tbaa !8
  %73 = icmp ne ptr %72, null
  br i1 %73, label %74, label %76

74:                                               ; preds = %67
  %75 = load ptr, ptr %8, align 8, !tbaa !8
  store ptr %75, ptr %4, align 8
  store i32 1, ptr %11, align 4
  br label %171

76:                                               ; preds = %67
  %77 = load ptr, ptr %5, align 8, !tbaa !3
  %78 = load ptr, ptr %6, align 8, !tbaa !8
  %79 = load ptr, ptr %7, align 8, !tbaa !8
  %80 = getelementptr inbounds nuw %struct.DdNode, ptr %79, i32 0, i32 3
  %81 = getelementptr inbounds nuw %struct.DdChildren, ptr %80, i32 0, i32 0
  %82 = load ptr, ptr %81, align 8, !tbaa !41
  %83 = call ptr @extraZddTuplesFromBdd(ptr noundef %77, ptr noundef %78, ptr noundef %82)
  store ptr %83, ptr %9, align 8, !tbaa !8
  %84 = load ptr, ptr %9, align 8, !tbaa !8
  %85 = icmp eq ptr %84, null
  br i1 %85, label %86, label %87

86:                                               ; preds = %76
  store ptr null, ptr %4, align 8
  store i32 1, ptr %11, align 4
  br label %171

87:                                               ; preds = %76
  %88 = load ptr, ptr %9, align 8, !tbaa !8
  %89 = ptrtoint ptr %88 to i64
  %90 = and i64 %89, -2
  %91 = inttoptr i64 %90 to ptr
  %92 = getelementptr inbounds nuw %struct.DdNode, ptr %91, i32 0, i32 1
  %93 = load i32, ptr %92, align 4, !tbaa !51
  %94 = add i32 %93, 1
  store i32 %94, ptr %92, align 4, !tbaa !51
  %95 = load ptr, ptr %6, align 8, !tbaa !8
  %96 = load ptr, ptr %5, align 8, !tbaa !3
  %97 = getelementptr inbounds nuw %struct.DdManager, ptr %96, i32 0, i32 1
  %98 = load ptr, ptr %97, align 8, !tbaa !38
  %99 = icmp eq ptr %95, %98
  br i1 %99, label %100, label %111

100:                                              ; preds = %87
  %101 = load ptr, ptr %5, align 8, !tbaa !3
  %102 = getelementptr inbounds nuw %struct.DdManager, ptr %101, i32 0, i32 2
  %103 = load ptr, ptr %102, align 8, !tbaa !43
  store ptr %103, ptr %10, align 8, !tbaa !8
  %104 = load ptr, ptr %10, align 8, !tbaa !8
  %105 = ptrtoint ptr %104 to i64
  %106 = and i64 %105, -2
  %107 = inttoptr i64 %106 to ptr
  %108 = getelementptr inbounds nuw %struct.DdNode, ptr %107, i32 0, i32 1
  %109 = load i32, ptr %108, align 4, !tbaa !51
  %110 = add i32 %109, 1
  store i32 %110, ptr %108, align 4, !tbaa !51
  br label %135

111:                                              ; preds = %87
  %112 = load ptr, ptr %5, align 8, !tbaa !3
  %113 = load ptr, ptr %6, align 8, !tbaa !8
  %114 = getelementptr inbounds nuw %struct.DdNode, ptr %113, i32 0, i32 3
  %115 = getelementptr inbounds nuw %struct.DdChildren, ptr %114, i32 0, i32 0
  %116 = load ptr, ptr %115, align 8, !tbaa !41
  %117 = load ptr, ptr %7, align 8, !tbaa !8
  %118 = getelementptr inbounds nuw %struct.DdNode, ptr %117, i32 0, i32 3
  %119 = getelementptr inbounds nuw %struct.DdChildren, ptr %118, i32 0, i32 0
  %120 = load ptr, ptr %119, align 8, !tbaa !41
  %121 = call ptr @extraZddTuplesFromBdd(ptr noundef %112, ptr noundef %116, ptr noundef %120)
  store ptr %121, ptr %10, align 8, !tbaa !8
  %122 = load ptr, ptr %10, align 8, !tbaa !8
  %123 = icmp eq ptr %122, null
  br i1 %123, label %124, label %127

124:                                              ; preds = %111
  %125 = load ptr, ptr %5, align 8, !tbaa !3
  %126 = load ptr, ptr %9, align 8, !tbaa !8
  call void @Cudd_RecursiveDerefZdd(ptr noundef %125, ptr noundef %126)
  store ptr null, ptr %4, align 8
  store i32 1, ptr %11, align 4
  br label %171

127:                                              ; preds = %111
  %128 = load ptr, ptr %10, align 8, !tbaa !8
  %129 = ptrtoint ptr %128 to i64
  %130 = and i64 %129, -2
  %131 = inttoptr i64 %130 to ptr
  %132 = getelementptr inbounds nuw %struct.DdNode, ptr %131, i32 0, i32 1
  %133 = load i32, ptr %132, align 4, !tbaa !51
  %134 = add i32 %133, 1
  store i32 %134, ptr %132, align 4, !tbaa !51
  br label %135

135:                                              ; preds = %127, %100
  %136 = load ptr, ptr %5, align 8, !tbaa !3
  %137 = load ptr, ptr %7, align 8, !tbaa !8
  %138 = getelementptr inbounds nuw %struct.DdNode, ptr %137, i32 0, i32 0
  %139 = load i32, ptr %138, align 8, !tbaa !39
  %140 = mul i32 2, %139
  %141 = load ptr, ptr %10, align 8, !tbaa !8
  %142 = load ptr, ptr %9, align 8, !tbaa !8
  %143 = call ptr @cuddZddGetNode(ptr noundef %136, i32 noundef %140, ptr noundef %141, ptr noundef %142)
  store ptr %143, ptr %8, align 8, !tbaa !8
  %144 = load ptr, ptr %8, align 8, !tbaa !8
  %145 = icmp eq ptr %144, null
  br i1 %145, label %146, label %151

146:                                              ; preds = %135
  %147 = load ptr, ptr %5, align 8, !tbaa !3
  %148 = load ptr, ptr %9, align 8, !tbaa !8
  call void @Cudd_RecursiveDerefZdd(ptr noundef %147, ptr noundef %148)
  %149 = load ptr, ptr %5, align 8, !tbaa !3
  %150 = load ptr, ptr %10, align 8, !tbaa !8
  call void @Cudd_RecursiveDerefZdd(ptr noundef %149, ptr noundef %150)
  store ptr null, ptr %4, align 8
  store i32 1, ptr %11, align 4
  br label %171

151:                                              ; preds = %135
  %152 = load ptr, ptr %9, align 8, !tbaa !8
  %153 = ptrtoint ptr %152 to i64
  %154 = and i64 %153, -2
  %155 = inttoptr i64 %154 to ptr
  %156 = getelementptr inbounds nuw %struct.DdNode, ptr %155, i32 0, i32 1
  %157 = load i32, ptr %156, align 4, !tbaa !51
  %158 = add i32 %157, -1
  store i32 %158, ptr %156, align 4, !tbaa !51
  %159 = load ptr, ptr %10, align 8, !tbaa !8
  %160 = ptrtoint ptr %159 to i64
  %161 = and i64 %160, -2
  %162 = inttoptr i64 %161 to ptr
  %163 = getelementptr inbounds nuw %struct.DdNode, ptr %162, i32 0, i32 1
  %164 = load i32, ptr %163, align 4, !tbaa !51
  %165 = add i32 %164, -1
  store i32 %165, ptr %163, align 4, !tbaa !51
  %166 = load ptr, ptr %5, align 8, !tbaa !3
  %167 = load ptr, ptr %6, align 8, !tbaa !8
  %168 = load ptr, ptr %7, align 8, !tbaa !8
  %169 = load ptr, ptr %8, align 8, !tbaa !8
  call void @cuddCacheInsert2(ptr noundef %166, ptr noundef @extraZddTuplesFromBdd, ptr noundef %167, ptr noundef %168, ptr noundef %169)
  %170 = load ptr, ptr %8, align 8, !tbaa !8
  store ptr %170, ptr %4, align 8
  store i32 1, ptr %11, align 4
  br label %171

171:                                              ; preds = %151, %146, %124, %86, %74, %63, %53
  call void @llvm.lifetime.end.p0(i64 8, ptr %10) #6
  call void @llvm.lifetime.end.p0(i64 8, ptr %9) #6
  call void @llvm.lifetime.end.p0(i64 8, ptr %8) #6
  %172 = load ptr, ptr %4, align 8
  ret ptr %172
}