; Function Attrs: nounwind uwtable
define ptr @extraZddTuplesFromBdd(ptr noundef %0, ptr noundef %1, ptr noundef %2) #0 {
  %4 = load i32, ptr %1, align 8, !tbaa !36
  %5 = icmp eq i32 %4, 2147483647
  br i1 %5, label %12, label %6

6:                                                ; preds = %3
  %7 = getelementptr inbounds nuw i8, ptr %0, i64 312
  %8 = load ptr, ptr %7, align 8, !tbaa !45
  %9 = zext i32 %4 to i64
  %10 = getelementptr inbounds nuw i32, ptr %8, i64 %9
  %11 = load i32, ptr %10, align 4, !tbaa !37
  br label %12

12:                                               ; preds = %3, %6
  %13 = phi i32 [ %11, %6 ], [ 2147483647, %3 ]
  %14 = load i32, ptr %2, align 8, !tbaa !36
  %15 = icmp eq i32 %14, 2147483647
  br i1 %15, label %22, label %16

16:                                               ; preds = %12
  %17 = getelementptr inbounds nuw i8, ptr %0, i64 312
  %18 = load ptr, ptr %17, align 8, !tbaa !45
  %19 = zext i32 %14 to i64
  %20 = getelementptr inbounds nuw i32, ptr %18, i64 %19
  %21 = load i32, ptr %20, align 4, !tbaa !37
  br label %22

22:                                               ; preds = %12, %16
  %23 = phi i32 [ %21, %16 ], [ 2147483647, %12 ]
  %24 = icmp slt i32 %13, %23
  br i1 %24, label %25, label %28

25:                                               ; preds = %22
  %26 = getelementptr inbounds nuw i8, ptr %0, i64 48
  %27 = load ptr, ptr %26, align 8, !tbaa !40
  br label %79

28:                                               ; preds = %22
  %29 = getelementptr inbounds nuw i8, ptr %0, i64 40
  %30 = load ptr, ptr %29, align 8, !tbaa !35
  %31 = icmp eq ptr %2, %30
  br i1 %31, label %79, label %32

32:                                               ; preds = %28
  %33 = tail call ptr @cuddCacheLookup2Zdd(ptr noundef nonnull %0, ptr noundef nonnull @extraZddTuplesFromBdd, ptr noundef nonnull %1, ptr noundef nonnull %2) #10
  %.not = icmp eq ptr %33, null
  br i1 %.not, label %34, label %79

34:                                               ; preds = %32
  %35 = getelementptr inbounds nuw i8, ptr %2, i64 16
  %36 = load ptr, ptr %35, align 8, !tbaa !38
  %37 = tail call ptr @extraZddTuplesFromBdd(ptr noundef nonnull %0, ptr noundef nonnull %1, ptr noundef %36)
  %38 = icmp eq ptr %37, null
  br i1 %38, label %79, label %39

39:                                               ; preds = %34
  %40 = ptrtoint ptr %37 to i64
  %41 = and i64 %40, -2
  %42 = inttoptr i64 %41 to ptr
  %43 = getelementptr inbounds nuw i8, ptr %42, i64 4
  %44 = load i32, ptr %43, align 4, !tbaa !47
  %45 = add i32 %44, 1
  store i32 %45, ptr %43, align 4, !tbaa !47
  %46 = load ptr, ptr %29, align 8, !tbaa !35
  %47 = icmp eq ptr %1, %46
  br i1 %47, label %48, label %51

48:                                               ; preds = %39
  %49 = getelementptr inbounds nuw i8, ptr %0, i64 48
  %50 = load ptr, ptr %49, align 8, !tbaa !40
  br label %58

51:                                               ; preds = %39
  %52 = getelementptr inbounds nuw i8, ptr %1, i64 16
  %53 = load ptr, ptr %52, align 8, !tbaa !38
  %54 = load ptr, ptr %35, align 8, !tbaa !38
  %55 = tail call ptr @extraZddTuplesFromBdd(ptr noundef nonnull %0, ptr noundef %53, ptr noundef %54)
  %56 = icmp eq ptr %55, null
  br i1 %56, label %57, label %58

57:                                               ; preds = %51
  tail call void @Cudd_RecursiveDerefZdd(ptr noundef nonnull %0, ptr noundef nonnull %37) #10
  br label %79

58:                                               ; preds = %51, %48
  %.sink = phi ptr [ %50, %48 ], [ %55, %51 ]
  %59 = ptrtoint ptr %.sink to i64
  %60 = and i64 %59, -2
  %61 = inttoptr i64 %60 to ptr
  %62 = getelementptr inbounds nuw i8, ptr %61, i64 4
  %63 = load i32, ptr %62, align 4, !tbaa !47
  %64 = add i32 %63, 1
  store i32 %64, ptr %62, align 4, !tbaa !47
  %65 = load i32, ptr %2, align 8, !tbaa !36
  %66 = shl i32 %65, 1
  %67 = tail call ptr @cuddZddGetNode(ptr noundef nonnull %0, i32 noundef %66, ptr noundef %.sink, ptr noundef nonnull %37) #10
  %68 = icmp eq ptr %67, null
  br i1 %68, label %69, label %70

69:                                               ; preds = %58
  tail call void @Cudd_RecursiveDerefZdd(ptr noundef nonnull %0, ptr noundef nonnull %37) #10
  tail call void @Cudd_RecursiveDerefZdd(ptr noundef nonnull %0, ptr noundef %.sink) #10
  br label %79

70:                                               ; preds = %58
  %71 = load i32, ptr %43, align 4, !tbaa !47
  %72 = add i32 %71, -1
  store i32 %72, ptr %43, align 4, !tbaa !47
  %73 = ptrtoint ptr %.sink to i64
  %74 = and i64 %73, -2
  %75 = inttoptr i64 %74 to ptr
  %76 = getelementptr inbounds nuw i8, ptr %75, i64 4
  %77 = load i32, ptr %76, align 4, !tbaa !47
  %78 = add i32 %77, -1
  store i32 %78, ptr %76, align 4, !tbaa !47
  tail call void @cuddCacheInsert2(ptr noundef nonnull %0, ptr noundef nonnull @extraZddTuplesFromBdd, ptr noundef nonnull %1, ptr noundef nonnull %2, ptr noundef nonnull %67) #10
  br label %79

79:                                               ; preds = %34, %32, %28, %70, %69, %57, %25
  %.050 = phi ptr [ %27, %25 ], [ null, %69 ], [ %67, %70 ], [ null, %57 ], [ %30, %28 ], [ %33, %32 ], [ null, %34 ]
  ret ptr %.050
}